target datalayout = "e-m:e-p270:32:32-p271:32:32-p272:64:64-i64:64-i128:128-f80:128-n8:16:32:64-S128"
target triple = "x86_64-unknown-linux-gnu"

%"class.pattern_inference_cfg::collect" = type { ptr, ptr, i32, i32, %class.map, %class.ptr_vector.14, %class.svector.16 }
%class.map = type { %class.table2map }
%class.table2map = type { %class.core_hashtable.10 }
%class.core_hashtable.10 = type <{ ptr, i32, i32, i32, [4 x i8] }>
%class.ptr_vector.14 = type { %class.vector.15 }
%class.vector.15 = type { ptr }
%class.svector.16 = type { %class.vector.17 }
%class.vector.17 = type { ptr }
%"struct.pattern_inference_cfg::collect::entry" = type <{ ptr, i32, [4 x i8] }>

; Function Attrs: mustprogress nounwind uwtable
define linkonce_odr hidden noundef nonnull align 8 dereferenceable(12) ptr @_ZN6vectorIN21pattern_inference_cfg7collect5entryELb0EjEixEj(ptr noundef nonnull align 8 dereferenceable(8) %this, i32 noundef %idx) #5 comdat align 2 {
entry:
  %this.addr = alloca ptr, align 8
  %idx.addr = alloca i32, align 4
  store ptr %this, ptr %this.addr, align 8
  store i32 %idx, ptr %idx.addr, align 4
  %this1 = load ptr, ptr %this.addr, align 8
  %m_data = getelementptr inbounds %class.vector.17, ptr %this1, i32 0, i32 0
  %0 = load ptr, ptr %m_data, align 8
  %1 = load i32, ptr %idx.addr, align 4
  %idxprom = zext i32 %1 to i64
  %arrayidx = getelementptr inbounds %"struct.pattern_inference_cfg::collect::entry", ptr %0, i64 %idxprom
  ret ptr %arrayidx
}

; Function Attrs: mustprogress nounwind uwtable
define linkonce_odr hidden noundef i32 @_ZNK6vectorIN21pattern_inference_cfg7collect5entryELb0EjE4sizeEv(ptr noundef nonnull align 8 dereferenceable(8) %this) #5 comdat align 2 {
entry:
  %retval = alloca i32, align 4
  %this.addr = alloca ptr, align 8
  store ptr %this, ptr %this.addr, align 8
  %this1 = load ptr, ptr %this.addr, align 8
  %m_data = getelementptr inbounds %class.vector.17, ptr %this1, i32 0, i32 0
  %0 = load ptr, ptr %m_data, align 8
  %cmp = icmp eq ptr %0, null
  br i1 %cmp, label %if.then, label %if.end

if.then:                                          ; preds = %entry
  store i32 0, ptr %retval, align 4
  br label %return

if.end:                                           ; preds = %entry
  %m_data2 = getelementptr inbounds %class.vector.17, ptr %this1, i32 0, i32 0
  %1 = load ptr, ptr %m_data2, align 8
  %arrayidx = getelementptr inbounds i32, ptr %1, i64 -1
  %2 = load i32, ptr %arrayidx, align 4
  store i32 %2, ptr %retval, align 4
  br label %return

return:                                           ; preds = %if.end, %if.then
  %3 = load i32, ptr %retval, align 4
  ret i32 %3
}

; Function Attrs: mustprogress nounwind uwtable
define linkonce_odr hidden void @_ZN6vectorIN21pattern_inference_cfg7collect5entryELb0EjE8pop_backEv(ptr noundef nonnull align 8 dereferenceable(8) %this) #5 comdat align 2 {
entry:
  %this.addr = alloca ptr, align 8
  store ptr %this, ptr %this.addr, align 8
  %this1 = load ptr, ptr %this.addr, align 8
  %m_data = getelementptr inbounds %class.vector.17, ptr %this1, i32 0, i32 0
  %0 = load ptr, ptr %m_data, align 8
  %arrayidx = getelementptr inbounds i32, ptr %0, i64 -1
  %1 = load i32, ptr %arrayidx, align 4
  %dec = add i32 %1, -1
  store i32 %dec, ptr %arrayidx, align 4
  ret void
}

; Function Attrs: mustprogress uwtable
define linkonce_odr hidden noundef nonnull align 8 dereferenceable(12) ptr @_ZN6vectorIN21pattern_inference_cfg7collect5entryELb0EjE4backEv(ptr noundef nonnull align 8 dereferenceable(8) %this) #4 comdat align 2 {
entry:
  %this.addr = alloca ptr, align 8
  store ptr %this, ptr %this.addr, align 8
  %this1 = load ptr, ptr %this.addr, align 8
  %call = call noundef i32 @_ZNK6vectorIN21pattern_inference_cfg7collect5entryELb0EjE4sizeEv(ptr noundef nonnull align 8 dereferenceable(8) %this1)
  %sub = sub i32 %call, 1
  %call2 = call noundef nonnull align 8 dereferenceable(12) ptr @_ZN6vectorIN21pattern_inference_cfg7collect5entryELb0EjEixEj(ptr noundef nonnull align 8 dereferenceable(8) %this1, i32 noundef %sub)
  ret ptr %call2
}

; Function Attrs: mustprogress nounwind uwtable
define linkonce_odr hidden noundef zeroext i1 @_ZNK6vectorIN21pattern_inference_cfg7collect5entryELb0EjE5emptyEv(ptr noundef nonnull align 8 dereferenceable(8) %this) #5 comdat align 2 {
entry:
  %this.addr = alloca ptr, align 8
  store ptr %this, ptr %this.addr, align 8
  %this1 = load ptr, ptr %this.addr, align 8
  %m_data = getelementptr inbounds %class.vector.17, ptr %this1, i32 0, i32 0
  %0 = load ptr, ptr %m_data, align 8
  %cmp = icmp eq ptr %0, null
  br i1 %cmp, label %lor.end, label %lor.rhs

lor.rhs:                                          ; preds = %entry
  %m_data2 = getelementptr inbounds %class.vector.17, ptr %this1, i32 0, i32 0
  %1 = load ptr, ptr %m_data2, align 8
  %arrayidx = getelementptr inbounds i32, ptr %1, i64 -1
  %2 = load i32, ptr %arrayidx, align 4
  %cmp3 = icmp eq i32 %2, 0
  br label %lor.end

lor.end:                                          ; preds = %lor.rhs, %entry
  %3 = phi i1 [ true, %entry ], [ %cmp3, %lor.rhs ]
  ret i1 %3
}

; Function Attrs: mustprogress uwtable
define linkonce_odr hidden noundef nonnull align 8 dereferenceable(8) ptr @_ZN6vectorIN21pattern_inference_cfg7collect5entryELb0EjE9push_backEOS2_(ptr noundef nonnull align 8 dereferenceable(8) %this, ptr noundef nonnull align 8 dereferenceable(12) %elem) #4 comdat align 2 {
entry:
  %this.addr = alloca ptr, align 8
  %elem.addr = alloca ptr, align 8
  store ptr %this, ptr %this.addr, align 8
  store ptr %elem, ptr %elem.addr, align 8
  %this1 = load ptr, ptr %this.addr, align 8
  %m_data = getelementptr inbounds %class.vector.17, ptr %this1, i32 0, i32 0
  %0 = load ptr, ptr %m_data, align 8
  %cmp = icmp eq ptr %0, null
  br i1 %cmp, label %if.then, label %lor.lhs.false

lor.lhs.false:                                    ; preds = %entry
  %m_data2 = getelementptr inbounds %class.vector.17, ptr %this1, i32 0, i32 0
  %1 = load ptr, ptr %m_data2, align 8
  %arrayidx = getelementptr inbounds i32, ptr %1, i64 -1
  %2 = load i32, ptr %arrayidx, align 4
  %m_data3 = getelementptr inbounds %class.vector.17, ptr %this1, i32 0, i32 0
  %3 = load ptr, ptr %m_data3, align 8
  %arrayidx4 = getelementptr inbounds i32, ptr %3, i64 -2
  %4 = load i32, ptr %arrayidx4, align 4
  %cmp5 = icmp eq i32 %2, %4
  br i1 %cmp5, label %if.then, label %if.end

if.then:                                          ; preds = %lor.lhs.false, %entry
  call void @_ZN6vectorIN21pattern_inference_cfg7collect5entryELb0EjE13expand_vectorEv(ptr noundef nonnull align 8 dereferenceable(8) %this1)
  br label %if.end

if.end:                                           ; preds = %if.then, %lor.lhs.false
  %m_data6 = getelementptr inbounds %class.vector.17, ptr %this1, i32 0, i32 0
  %5 = load ptr, ptr %m_data6, align 8
  %m_data7 = getelementptr inbounds %class.vector.17, ptr %this1, i32 0, i32 0
  %6 = load ptr, ptr %m_data7, align 8
  %arrayidx8 = getelementptr inbounds i32, ptr %6, i64 -1
  %7 = load i32, ptr %arrayidx8, align 4
  %idx.ext = zext i32 %7 to i64
  %add.ptr = getelementptr inbounds %"struct.pattern_inference_cfg::collect::entry", ptr %5, i64 %idx.ext
  %8 = load ptr, ptr %elem.addr, align 8
  call void @llvm.memcpy.p0.p0.i64(ptr align 8 %add.ptr, ptr align 8 %8, i64 16, i1 false)
  %m_data9 = getelementptr inbounds %class.vector.17, ptr %this1, i32 0, i32 0
  %9 = load ptr, ptr %m_data9, align 8
  %arrayidx10 = getelementptr inbounds i32, ptr %9, i64 -1
  %10 = load i32, ptr %arrayidx10, align 4
  %inc = add i32 %10, 1
  store i32 %inc, ptr %arrayidx10, align 4
  ret ptr %this1
}

; Function Attrs: mustprogress nounwind uwtable
define linkonce_odr hidden void @_ZN21pattern_inference_cfg7collect5entryC2EP4exprj(ptr noundef nonnull align 8 dereferenceable(12) %this, ptr noundef %n, i32 noundef %d) unnamed_addr #5 comdat align 2 {
entry:
  %this.addr = alloca ptr, align 8
  %n.addr = alloca ptr, align 8
  %d.addr = alloca i32, align 4
  store ptr %this, ptr %this.addr, align 8
  store ptr %n, ptr %n.addr, align 8
  store i32 %d, ptr %d.addr, align 4
  %this1 = load ptr, ptr %this.addr, align 8
  %m_node = getelementptr inbounds %"struct.pattern_inference_cfg::collect::entry", ptr %this1, i32 0, i32 0
  %0 = load ptr, ptr %n.addr, align 8
  store ptr %0, ptr %m_node, align 8
  %m_delta = getelementptr inbounds %"struct.pattern_inference_cfg::collect::entry", ptr %this1, i32 0, i32 1
  %1 = load i32, ptr %d.addr, align 4
  store i32 %1, ptr %m_delta, align 8
  ret void
}

; Function Attrs: mustprogress uwtable
define hidden void @_ZN21pattern_inference_cfg7collectclEP4exprj(ptr noundef nonnull align 8 dereferenceable(64) %this, ptr noundef %n, i32 noundef %num_bindings) #4 align 2 {
entry:
  %this.addr = alloca ptr, align 8
  %n.addr = alloca ptr, align 8
  %num_bindings.addr = alloca i32, align 4
  %ref.tmp = alloca %"struct.pattern_inference_cfg::collect::entry", align 8
  %e = alloca ptr, align 8
  %delta = alloca i32, align 4
  store ptr %this, ptr %this.addr, align 8
  store ptr %n, ptr %n.addr, align 8
  store i32 %num_bindings, ptr %num_bindings.addr, align 4
  %this1 = load ptr, ptr %this.addr, align 8
  %0 = load i32, ptr %num_bindings.addr, align 4
  %m_num_bindings = getelementptr inbounds %"class.pattern_inference_cfg::collect", ptr %this1, i32 0, i32 3
  store i32 %0, ptr %m_num_bindings, align 4
  %m_todo = getelementptr inbounds %"class.pattern_inference_cfg::collect", ptr %this1, i32 0, i32 6
  %1 = load ptr, ptr %n.addr, align 8
  call void @_ZN21pattern_inference_cfg7collect5entryC2EP4exprj(ptr noundef nonnull align 8 dereferenceable(12) %ref.tmp, ptr noundef %1, i32 noundef 0)
  %call = call noundef nonnull align 8 dereferenceable(8) ptr @_ZN6vectorIN21pattern_inference_cfg7collect5entryELb0EjE9push_backEOS2_(ptr noundef nonnull align 8 dereferenceable(8) %m_todo, ptr noundef nonnull align 8 dereferenceable(12) %ref.tmp)
  br label %while.cond

while.cond:                                       ; preds = %if.end, %entry
  %m_todo2 = getelementptr inbounds %"class.pattern_inference_cfg::collect", ptr %this1, i32 0, i32 6
  %call3 = call noundef zeroext i1 @_ZNK6vectorIN21pattern_inference_cfg7collect5entryELb0EjE5emptyEv(ptr noundef nonnull align 8 dereferenceable(8) %m_todo2)
  %lnot = xor i1 %call3, true
  br i1 %lnot, label %while.body, label %while.end

while.body:                                       ; preds = %while.cond
  %m_todo4 = getelementptr inbounds %"class.pattern_inference_cfg::collect", ptr %this1, i32 0, i32 6
  %call5 = call noundef nonnull align 8 dereferenceable(12) ptr @_ZN6vectorIN21pattern_inference_cfg7collect5entryELb0EjE4backEv(ptr noundef nonnull align 8 dereferenceable(8) %m_todo4)
  store ptr %call5, ptr %e, align 8
  %2 = load ptr, ptr %e, align 8
  %m_node = getelementptr inbounds %"struct.pattern_inference_cfg::collect::entry", ptr %2, i32 0, i32 0
  %3 = load ptr, ptr %m_node, align 8
  store ptr %3, ptr %n.addr, align 8
  %4 = load ptr, ptr %e, align 8
  %m_delta = getelementptr inbounds %"struct.pattern_inference_cfg::collect::entry", ptr %4, i32 0, i32 1
  %5 = load i32, ptr %m_delta, align 8
  store i32 %5, ptr %delta, align 4
  %6 = load ptr, ptr %n.addr, align 8
  %7 = load i32, ptr %delta, align 4
  %call6 = call noundef zeroext i1 @_ZN21pattern_inference_cfg7collect14visit_childrenEP4exprj(ptr noundef nonnull align 8 dereferenceable(64) %this1, ptr noundef %6, i32 noundef %7)
  br i1 %call6, label %if.then, label %if.end

if.then:                                          ; preds = %while.body
  %m_todo7 = getelementptr inbounds %"class.pattern_inference_cfg::collect", ptr %this1, i32 0, i32 6
  call void @_ZN6vectorIN21pattern_inference_cfg7collect5entryELb0EjE8pop_backEv(ptr noundef nonnull align 8 dereferenceable(8) %m_todo7)
  %8 = load ptr, ptr %n.addr, align 8
  %9 = load i32, ptr %delta, align 4
  call void @_ZN21pattern_inference_cfg7collect14save_candidateEP4exprj(ptr noundef nonnull align 8 dereferenceable(64) %this1, ptr noundef %8, i32 noundef %9)
  br label %if.end

if.end:                                           ; preds = %if.then, %while.body
  br label %while.cond, !llvm.loop !11

while.end:                                        ; preds = %while.cond
  call void @_ZN21pattern_inference_cfg7collect5resetEv(ptr noundef nonnull align 8 dereferenceable(64) %this1)
  ret void
}