; Function Attrs: mustprogress uwtable
define hidden void @_ZN21pattern_inference_cfg7collectclEP4exprj(ptr noundef nonnull align 8 dereferenceable(64) %this, ptr noundef %n, i32 noundef %num_bindings) local_unnamed_addr #3 align 2 {
entry:
  %m_num_bindings = getelementptr inbounds i8, ptr %this, i64 20
  store i32 %num_bindings, ptr %m_num_bindings, align 4
  %m_todo = getelementptr inbounds i8, ptr %this, i64 56
  %0 = load ptr, ptr %m_todo, align 8
  %cmp.i = icmp eq ptr %0, null
  br i1 %cmp.i, label %if.then.i, label %lor.lhs.false.i

lor.lhs.false.i:                                  ; preds = %entry
  %arrayidx.i = getelementptr inbounds i8, ptr %0, i64 -4
  %1 = load i32, ptr %arrayidx.i, align 4
  %arrayidx4.i = getelementptr inbounds i8, ptr %0, i64 -8
  %2 = load i32, ptr %arrayidx4.i, align 4
  %cmp5.i = icmp eq i32 %1, %2
  br i1 %cmp5.i, label %if.then.i, label %_ZN6vectorIN21pattern_inference_cfg7collect5entryELb0EjE9push_backEOS2_.exit

if.then.i:                                        ; preds = %lor.lhs.false.i, %entry
  tail call void @_ZN6vectorIN21pattern_inference_cfg7collect5entryELb0EjE13expand_vectorEv(ptr noundef nonnull align 8 dereferenceable(8) %m_todo)
  %.pre.i = load ptr, ptr %m_todo, align 8
  %arrayidx8.phi.trans.insert.i = getelementptr inbounds i8, ptr %.pre.i, i64 -4
  %.pre1.i = load i32, ptr %arrayidx8.phi.trans.insert.i, align 4
  br label %_ZN6vectorIN21pattern_inference_cfg7collect5entryELb0EjE9push_backEOS2_.exit

_ZN6vectorIN21pattern_inference_cfg7collect5entryELb0EjE9push_backEOS2_.exit: ; preds = %lor.lhs.false.i, %if.then.i
  %3 = phi i32 [ %.pre1.i, %if.then.i ], [ %1, %lor.lhs.false.i ]
  %4 = phi ptr [ %.pre.i, %if.then.i ], [ %0, %lor.lhs.false.i ]
  %idx.ext.i = zext i32 %3 to i64
  %add.ptr.i = getelementptr inbounds %"struct.pattern_inference_cfg::collect::entry", ptr %4, i64 %idx.ext.i
  store ptr %n, ptr %add.ptr.i, align 8
  %ref.tmp.sroa.2.0.add.ptr.i.sroa_idx = getelementptr inbounds i8, ptr %add.ptr.i, i64 8
  store i32 0, ptr %ref.tmp.sroa.2.0.add.ptr.i.sroa_idx, align 8
  %5 = load ptr, ptr %m_todo, align 8
  %arrayidx10.i = getelementptr inbounds i8, ptr %5, i64 -4
  %6 = load i32, ptr %arrayidx10.i, align 4
  %inc.i = add i32 %6, 1
  store i32 %inc.i, ptr %arrayidx10.i, align 4
  %7 = load ptr, ptr %m_todo, align 8
  %cmp.i58 = icmp eq ptr %7, null
  br i1 %cmp.i58, label %while.end, label %_ZNK6vectorIN21pattern_inference_cfg7collect5entryELb0EjE5emptyEv.exit

_ZNK6vectorIN21pattern_inference_cfg7collect5entryELb0EjE5emptyEv.exit: ; preds = %_ZN6vectorIN21pattern_inference_cfg7collect5entryELb0EjE9push_backEOS2_.exit, %if.end
  %8 = phi ptr [ %16, %if.end ], [ %7, %_ZN6vectorIN21pattern_inference_cfg7collect5entryELb0EjE9push_backEOS2_.exit ]
  %arrayidx.i6 = getelementptr inbounds i8, ptr %8, i64 -4
  %9 = load i32, ptr %arrayidx.i6, align 4
  %cmp3.i = icmp eq i32 %9, 0
  br i1 %cmp3.i, label %while.end, label %_ZN6vectorIN21pattern_inference_cfg7collect5entryELb0EjE4backEv.exit

_ZN6vectorIN21pattern_inference_cfg7collect5entryELb0EjE4backEv.exit: ; preds = %_ZNK6vectorIN21pattern_inference_cfg7collect5entryELb0EjE5emptyEv.exit
  %10 = add i32 %9, -1
  %11 = zext i32 %10 to i64
  %arrayidx.i1.i = getelementptr inbounds %"struct.pattern_inference_cfg::collect::entry", ptr %8, i64 %11
  %12 = load ptr, ptr %arrayidx.i1.i, align 8
  %m_delta = getelementptr inbounds i8, ptr %arrayidx.i1.i, i64 8
  %13 = load i32, ptr %m_delta, align 8
  %call6 = tail call noundef zeroext i1 @_ZN21pattern_inference_cfg7collect14visit_childrenEP4exprj(ptr noundef nonnull align 8 dereferenceable(64) %this, ptr noundef %12, i32 noundef %13)
  br i1 %call6, label %if.then, label %if.end

if.then:                                          ; preds = %_ZN6vectorIN21pattern_inference_cfg7collect5entryELb0EjE4backEv.exit
  %14 = load ptr, ptr %m_todo, align 8
  %arrayidx.i7 = getelementptr inbounds i8, ptr %14, i64 -4
  %15 = load i32, ptr %arrayidx.i7, align 4
  %dec.i = add i32 %15, -1
  store i32 %dec.i, ptr %arrayidx.i7, align 4
  tail call void @_ZN21pattern_inference_cfg7collect14save_candidateEP4exprj(ptr noundef nonnull align 8 dereferenceable(64) %this, ptr noundef %12, i32 noundef %13)
  br label %if.end

if.end:                                           ; preds = %if.then, %_ZN6vectorIN21pattern_inference_cfg7collect5entryELb0EjE4backEv.exit
  %16 = load ptr, ptr %m_todo, align 8
  %cmp.i5 = icmp eq ptr %16, null
  br i1 %cmp.i5, label %while.end, label %_ZNK6vectorIN21pattern_inference_cfg7collect5entryELb0EjE5emptyEv.exit, !llvm.loop !14

while.end:                                        ; preds = %_ZNK6vectorIN21pattern_inference_cfg7collect5entryELb0EjE5emptyEv.exit, %if.end, %_ZN6vectorIN21pattern_inference_cfg7collect5entryELb0EjE9push_backEOS2_.exit
  tail call void @_ZN21pattern_inference_cfg7collect5resetEv(ptr noundef nonnull align 8 dereferenceable(64) %this)
  ret void
}